; Function Attrs: mustprogress nofree norecurse nosync nounwind willreturn memory(readwrite, inaccessiblemem: none) uwtable
define hidden noundef i64 @_ZNK10duckdb_re211StringPiece4copyEPcmm(ptr noundef nonnull readonly align 8 captures(none) dereferenceable(16) %0, ptr noundef writeonly captures(none) %1, i64 noundef %2, i64 noundef %3) local_unnamed_addr #0 align 2 {
  %5 = getelementptr inbounds nuw i8, ptr %0, i64 8
  %6 = load i64, ptr %5, align 8, !tbaa !3
  %7 = sub i64 %6, %3
  %.sroa.speculated = tail call i64 @llvm.umin.i64(i64 %2, i64 %7)
  %8 = load ptr, ptr %0, align 8, !tbaa !10
  %9 = getelementptr inbounds nuw i8, ptr %8, i64 %3
  tail call void @llvm.memcpy.p0.p0.i64(ptr align 1 %1, ptr align 1 %9, i64 %.sroa.speculated, i1 false)
  ret i64 %.sroa.speculated
}